target datalayout = "e-m:e-p270:32:32-p271:32:32-p272:64:64-i64:64-i128:128-f80:128-n8:16:32:64-S128"
target triple = "x86_64-unknown-linux-gnu"

%"class.spacer::model_node" = type <{ %class.ref, ptr, %class.ptr_vector, ptr, ptr, i32, i32, i8, [7 x i8] }>
%class.ref = type { ptr }
%class.ptr_vector = type { %class.vector }
%class.vector = type { ptr }

; Function Attrs: mustprogress nounwind uwtable
define linkonce_odr hidden noundef zeroext i1 @_ZNK6vectorIPN6spacer10model_nodeELb0EjE5emptyEv(ptr noundef nonnull align 8 dereferenceable(8) %this) #5 comdat align 2 {
entry:
  %this.addr = alloca ptr, align 8
  store ptr %this, ptr %this.addr, align 8
  %this1 = load ptr, ptr %this.addr, align 8
  %m_data = getelementptr inbounds %class.vector, ptr %this1, i32 0, i32 0
  %0 = load ptr, ptr %m_data, align 8
  %cmp = icmp eq ptr %0, null
  br i1 %cmp, label %lor.end, label %lor.rhs

lor.rhs:                                          ; preds = %entry
  %m_data2 = getelementptr inbounds %class.vector, ptr %this1, i32 0, i32 0
  %1 = load ptr, ptr %m_data2, align 8
  %arrayidx = getelementptr inbounds i32, ptr %1, i64 -1
  %2 = load i32, ptr %arrayidx, align 4
  %cmp3 = icmp eq i32 %2, 0
  br label %lor.end

lor.end:                                          ; preds = %lor.rhs, %entry
  %3 = phi i1 [ true, %entry ], [ %cmp3, %lor.rhs ]
  ret i1 %3
}

; Function Attrs: mustprogress nounwind uwtable
define linkonce_odr hidden noundef zeroext i1 @_ZNK6spacer10model_node9is_closedEv(ptr noundef nonnull align 8 dereferenceable(49) %this) #5 comdat align 2 {
entry:
  %this.addr = alloca ptr, align 8
  store ptr %this, ptr %this.addr, align 8
  %this1 = load ptr, ptr %this.addr, align 8
  %m_closed = getelementptr inbounds %"class.spacer::model_node", ptr %this1, i32 0, i32 7
  %0 = load i8, ptr %m_closed, align 8
  %tobool = trunc i8 %0 to i1
  ret i1 %tobool
}

; Function Attrs: mustprogress nounwind uwtable
define linkonce_odr hidden noundef i32 @_ZNK6vectorIPN6spacer10model_nodeELb0EjE4sizeEv(ptr noundef nonnull align 8 dereferenceable(8) %this) #5 comdat align 2 {
entry:
  %retval = alloca i32, align 4
  %this.addr = alloca ptr, align 8
  store ptr %this, ptr %this.addr, align 8
  %this1 = load ptr, ptr %this.addr, align 8
  %m_data = getelementptr inbounds %class.vector, ptr %this1, i32 0, i32 0
  %0 = load ptr, ptr %m_data, align 8
  %cmp = icmp eq ptr %0, null
  br i1 %cmp, label %if.then, label %if.end

if.then:                                          ; preds = %entry
  store i32 0, ptr %retval, align 4
  br label %return

if.end:                                           ; preds = %entry
  %m_data2 = getelementptr inbounds %class.vector, ptr %this1, i32 0, i32 0
  %1 = load ptr, ptr %m_data2, align 8
  %arrayidx = getelementptr inbounds i32, ptr %1, i64 -1
  %2 = load i32, ptr %arrayidx, align 4
  store i32 %2, ptr %retval, align 4
  br label %return

return:                                           ; preds = %if.end, %if.then
  %3 = load i32, ptr %retval, align 4
  ret i32 %3
}

; Function Attrs: mustprogress nounwind uwtable
define linkonce_odr hidden noundef ptr @_ZNK6spacer10model_node6parentEv(ptr noundef nonnull align 8 dereferenceable(49) %this) #5 comdat align 2 {
entry:
  %this.addr = alloca ptr, align 8
  store ptr %this, ptr %this.addr, align 8
  %this1 = load ptr, ptr %this.addr, align 8
  %m_parent = getelementptr inbounds %"class.spacer::model_node", ptr %this1, i32 0, i32 1
  %0 = load ptr, ptr %m_parent, align 8
  ret ptr %0
}

; Function Attrs: mustprogress uwtable
define linkonce_odr hidden noundef zeroext i1 @_ZN6spacer10model_node10is_1closedEv(ptr noundef nonnull align 8 dereferenceable(49) %this) #4 comdat align 2 {
entry:
  %retval = alloca i1, align 1
  %this.addr = alloca ptr, align 8
  %__range2 = alloca ptr, align 8
  %__begin2 = alloca ptr, align 8
  %__end2 = alloca ptr, align 8
  %kid = alloca ptr, align 8
  store ptr %this, ptr %this.addr, align 8
  %this1 = load ptr, ptr %this.addr, align 8
  %call = call noundef zeroext i1 @_ZNK6spacer10model_node9is_closedEv(ptr noundef nonnull align 8 dereferenceable(49) %this1)
  br i1 %call, label %if.then, label %if.end

if.then:                                          ; preds = %entry
  store i1 true, ptr %retval, align 1
  br label %return

if.end:                                           ; preds = %entry
  %m_children = getelementptr inbounds %"class.spacer::model_node", ptr %this1, i32 0, i32 2
  %call2 = call noundef zeroext i1 @_ZNK6vectorIPN6spacer10model_nodeELb0EjE5emptyEv(ptr noundef nonnull align 8 dereferenceable(8) %m_children)
  br i1 %call2, label %if.then3, label %if.end4

if.then3:                                         ; preds = %if.end
  store i1 false, ptr %retval, align 1
  br label %return

if.end4:                                          ; preds = %if.end
  %m_children5 = getelementptr inbounds %"class.spacer::model_node", ptr %this1, i32 0, i32 2
  store ptr %m_children5, ptr %__range2, align 8
  %0 = load ptr, ptr %__range2, align 8
  %call6 = call noundef ptr @_ZN6vectorIPN6spacer10model_nodeELb0EjE5beginEv(ptr noundef nonnull align 8 dereferenceable(8) %0)
  store ptr %call6, ptr %__begin2, align 8
  %1 = load ptr, ptr %__range2, align 8
  %call7 = call noundef ptr @_ZN6vectorIPN6spacer10model_nodeELb0EjE3endEv(ptr noundef nonnull align 8 dereferenceable(8) %1)
  store ptr %call7, ptr %__end2, align 8
  br label %for.cond

for.cond:                                         ; preds = %for.inc, %if.end4
  %2 = load ptr, ptr %__begin2, align 8
  %3 = load ptr, ptr %__end2, align 8
  %cmp = icmp ne ptr %2, %3
  br i1 %cmp, label %for.body, label %for.end

for.body:                                         ; preds = %for.cond
  %4 = load ptr, ptr %__begin2, align 8
  %5 = load ptr, ptr %4, align 8
  store ptr %5, ptr %kid, align 8
  %6 = load ptr, ptr %kid, align 8
  %call8 = call noundef zeroext i1 @_ZNK6spacer10model_node7is_openEv(ptr noundef nonnull align 8 dereferenceable(49) %6)
  br i1 %call8, label %if.then9, label %if.end10

if.then9:                                         ; preds = %for.body
  store i1 false, ptr %retval, align 1
  br label %return

if.end10:                                         ; preds = %for.body
  br label %for.inc

for.inc:                                          ; preds = %if.end10
  %7 = load ptr, ptr %__begin2, align 8
  %incdec.ptr = getelementptr inbounds ptr, ptr %7, i32 1
  store ptr %incdec.ptr, ptr %__begin2, align 8
  br label %for.cond

for.end:                                          ; preds = %for.cond
  store i1 true, ptr %retval, align 1
  br label %return

return:                                           ; preds = %for.end, %if.then9, %if.then3, %if.then
  %8 = load i1, ptr %retval, align 1
  ret i1 %8
}

; Function Attrs: mustprogress nounwind uwtable
define linkonce_odr hidden void @_ZN6spacer10model_node14set_pre_closedEv(ptr noundef nonnull align 8 dereferenceable(49) %this) #5 comdat align 2 {
entry:
  %this.addr = alloca ptr, align 8
  store ptr %this, ptr %this.addr, align 8
  %this1 = load ptr, ptr %this.addr, align 8
  %m_closed = getelementptr inbounds %"class.spacer::model_node", ptr %this1, i32 0, i32 7
  store i8 1, ptr %m_closed, align 8
  ret void
}

; Function Attrs: mustprogress nounwind uwtable
define linkonce_odr hidden noundef zeroext i1 @_ZNK6spacer10model_node7is_openEv(ptr noundef nonnull align 8 dereferenceable(49) %this) #5 comdat align 2 {
entry:
  %this.addr = alloca ptr, align 8
  store ptr %this, ptr %this.addr, align 8
  %this1 = load ptr, ptr %this.addr, align 8
  %call = call noundef zeroext i1 @_ZNK6spacer10model_node9is_closedEv(ptr noundef nonnull align 8 dereferenceable(49) %this1)
  %lnot = xor i1 %call, true
  ret i1 %lnot
}

; Function Attrs: mustprogress uwtable
define linkonce_odr hidden noundef ptr @_ZN6vectorIPN6spacer10model_nodeELb0EjE3endEv(ptr noundef nonnull align 8 dereferenceable(8) %this) #4 comdat align 2 {
entry:
  %this.addr = alloca ptr, align 8
  store ptr %this, ptr %this.addr, align 8
  %this1 = load ptr, ptr %this.addr, align 8
  %m_data = getelementptr inbounds %class.vector, ptr %this1, i32 0, i32 0
  %0 = load ptr, ptr %m_data, align 8
  %call = call noundef i32 @_ZNK6vectorIPN6spacer10model_nodeELb0EjE4sizeEv(ptr noundef nonnull align 8 dereferenceable(8) %this1)
  %idx.ext = zext i32 %call to i64
  %add.ptr = getelementptr inbounds ptr, ptr %0, i64 %idx.ext
  ret ptr %add.ptr
}

; Function Attrs: mustprogress nounwind uwtable
define linkonce_odr hidden noundef ptr @_ZN6vectorIPN6spacer10model_nodeELb0EjE5beginEv(ptr noundef nonnull align 8 dereferenceable(8) %this) #5 comdat align 2 {
entry:
  %this.addr = alloca ptr, align 8
  store ptr %this, ptr %this.addr, align 8
  %this1 = load ptr, ptr %this.addr, align 8
  %m_data = getelementptr inbounds %class.vector, ptr %this1, i32 0, i32 0
  %0 = load ptr, ptr %m_data, align 8
  ret ptr %0
}

; Function Attrs: mustprogress uwtable
define hidden void @_ZN6spacer10model_node16check_pre_closedEv(ptr noundef nonnull align 8 dereferenceable(49) %this) #4 align 2 {
entry:
  %this.addr = alloca ptr, align 8
  %__range1 = alloca ptr, align 8
  %__begin1 = alloca ptr, align 8
  %__end1 = alloca ptr, align 8
  %kid = alloca ptr, align 8
  %p = alloca ptr, align 8
  store ptr %this, ptr %this.addr, align 8
  %this1 = load ptr, ptr %this.addr, align 8
  %m_children = getelementptr inbounds %"class.spacer::model_node", ptr %this1, i32 0, i32 2
  store ptr %m_children, ptr %__range1, align 8
  %0 = load ptr, ptr %__range1, align 8
  %call = call noundef ptr @_ZN6vectorIPN6spacer10model_nodeELb0EjE5beginEv(ptr noundef nonnull align 8 dereferenceable(8) %0)
  store ptr %call, ptr %__begin1, align 8
  %1 = load ptr, ptr %__range1, align 8
  %call2 = call noundef ptr @_ZN6vectorIPN6spacer10model_nodeELb0EjE3endEv(ptr noundef nonnull align 8 dereferenceable(8) %1)
  store ptr %call2, ptr %__end1, align 8
  br label %for.cond

for.cond:                                         ; preds = %for.inc, %entry
  %2 = load ptr, ptr %__begin1, align 8
  %3 = load ptr, ptr %__end1, align 8
  %cmp = icmp ne ptr %2, %3
  br i1 %cmp, label %for.body, label %for.end

for.body:                                         ; preds = %for.cond
  %4 = load ptr, ptr %__begin1, align 8
  %5 = load ptr, ptr %4, align 8
  store ptr %5, ptr %kid, align 8
  %6 = load ptr, ptr %kid, align 8
  %call3 = call noundef zeroext i1 @_ZNK6spacer10model_node7is_openEv(ptr noundef nonnull align 8 dereferenceable(49) %6)
  br i1 %call3, label %if.then, label %if.end

if.then:                                          ; preds = %for.body
  br label %while.end

if.end:                                           ; preds = %for.body
  br label %for.inc

for.inc:                                          ; preds = %if.end
  %7 = load ptr, ptr %__begin1, align 8
  %incdec.ptr = getelementptr inbounds ptr, ptr %7, i32 1
  store ptr %incdec.ptr, ptr %__begin1, align 8
  br label %for.cond

for.end:                                          ; preds = %for.cond
  call void @_ZN6spacer10model_node14set_pre_closedEv(ptr noundef nonnull align 8 dereferenceable(49) %this1)
  %m_parent = getelementptr inbounds %"class.spacer::model_node", ptr %this1, i32 0, i32 1
  %8 = load ptr, ptr %m_parent, align 8
  store ptr %8, ptr %p, align 8
  br label %while.cond

while.cond:                                       ; preds = %while.body, %for.end
  %9 = load ptr, ptr %p, align 8
  %tobool = icmp ne ptr %9, null
  br i1 %tobool, label %land.rhs, label %land.end

land.rhs:                                         ; preds = %while.cond
  %10 = load ptr, ptr %p, align 8
  %call4 = call noundef zeroext i1 @_ZN6spacer10model_node10is_1closedEv(ptr noundef nonnull align 8 dereferenceable(49) %10)
  br label %land.end

land.end:                                         ; preds = %land.rhs, %while.cond
  %11 = phi i1 [ false, %while.cond ], [ %call4, %land.rhs ]
  br i1 %11, label %while.body, label %while.end

while.body:                                       ; preds = %land.end
  %12 = load ptr, ptr %p, align 8
  call void @_ZN6spacer10model_node14set_pre_closedEv(ptr noundef nonnull align 8 dereferenceable(49) %12)
  %13 = load ptr, ptr %p, align 8
  %call5 = call noundef ptr @_ZNK6spacer10model_node6parentEv(ptr noundef nonnull align 8 dereferenceable(49) %13)
  store ptr %call5, ptr %p, align 8
  br label %while.cond, !llvm.loop !7

while.end:                                        ; preds = %land.end, %if.then
  ret void
}