; Function Attrs: mustprogress nofree norecurse nosync nounwind memory(readwrite, inaccessiblemem: none) uwtable
define hidden void @_ZN6spacer10model_node16check_pre_closedEv(ptr nocapture noundef nonnull align 8 dereferenceable(49) %this) local_unnamed_addr #5 align 2 {
entry:
  %m_children = getelementptr inbounds i8, ptr %this, i64 16
  %0 = load ptr, ptr %m_children, align 8
  %cmp.i.i = icmp eq ptr %0, null
  br i1 %cmp.i.i, label %for.end, label %_ZN6vectorIPN6spacer10model_nodeELb0EjE3endEv.exit

_ZN6vectorIPN6spacer10model_nodeELb0EjE3endEv.exit: ; preds = %entry
  %arrayidx.i.i = getelementptr inbounds i8, ptr %0, i64 -4
  %1 = load i32, ptr %arrayidx.i.i, align 4
  %2 = zext i32 %1 to i64
  %add.ptr.i = getelementptr inbounds ptr, ptr %0, i64 %2
  %cmp.not15 = icmp eq i32 %1, 0
  br i1 %cmp.not15, label %for.end, label %for.body

for.cond:                                         ; preds = %for.body
  %incdec.ptr = getelementptr inbounds i8, ptr %__begin1.016, i64 8
  %cmp.not = icmp eq ptr %incdec.ptr, %add.ptr.i
  br i1 %cmp.not, label %for.end, label %for.body

for.body:                                         ; preds = %_ZN6vectorIPN6spacer10model_nodeELb0EjE3endEv.exit, %for.cond
  %__begin1.016 = phi ptr [ %incdec.ptr, %for.cond ], [ %0, %_ZN6vectorIPN6spacer10model_nodeELb0EjE3endEv.exit ]
  %3 = load ptr, ptr %__begin1.016, align 8
  %m_closed.i.i = getelementptr inbounds i8, ptr %3, i64 48
  %4 = load i8, ptr %m_closed.i.i, align 8
  %5 = and i8 %4, 1
  %tobool.i.not.i = icmp eq i8 %5, 0
  br i1 %tobool.i.not.i, label %while.end, label %for.cond

for.end:                                          ; preds = %for.cond, %entry, %_ZN6vectorIPN6spacer10model_nodeELb0EjE3endEv.exit
  %m_closed.i = getelementptr inbounds i8, ptr %this, i64 48
  store i8 1, ptr %m_closed.i, align 8
  %p.0.in17 = getelementptr inbounds i8, ptr %this, i64 8
  %p.018 = load ptr, ptr %p.0.in17, align 8
  %tobool.not19 = icmp eq ptr %p.018, null
  br i1 %tobool.not19, label %while.end, label %land.rhs

land.rhs:                                         ; preds = %for.end, %while.body
  %p.020 = phi ptr [ %p.0, %while.body ], [ %p.018, %for.end ]
  %m_closed.i.i7 = getelementptr inbounds i8, ptr %p.020, i64 48
  %6 = load i8, ptr %m_closed.i.i7, align 8
  %7 = and i8 %6, 1
  %tobool.i.not.i8 = icmp eq i8 %7, 0
  br i1 %tobool.i.not.i8, label %if.end.i, label %while.body

if.end.i:                                         ; preds = %land.rhs
  %m_children.i = getelementptr inbounds i8, ptr %p.020, i64 16
  %8 = load ptr, ptr %m_children.i, align 8
  %cmp.i.i9 = icmp eq ptr %8, null
  br i1 %cmp.i.i9, label %while.end, label %_ZNK6vectorIPN6spacer10model_nodeELb0EjE5emptyEv.exit.i

_ZNK6vectorIPN6spacer10model_nodeELb0EjE5emptyEv.exit.i: ; preds = %if.end.i
  %arrayidx.i.i10 = getelementptr inbounds i8, ptr %8, i64 -4
  %9 = load i32, ptr %arrayidx.i.i10, align 4
  %cmp3.i.i = icmp eq i32 %9, 0
  br i1 %cmp3.i.i, label %while.end, label %for.body.preheader.i

for.body.preheader.i:                             ; preds = %_ZNK6vectorIPN6spacer10model_nodeELb0EjE5emptyEv.exit.i
  %10 = zext i32 %9 to i64
  %add.ptr.i.i = getelementptr inbounds ptr, ptr %8, i64 %10
  br label %for.body.i

for.cond.i:                                       ; preds = %for.body.i
  %incdec.ptr.i = getelementptr inbounds i8, ptr %__begin2.05.i, i64 8
  %cmp.not.i = icmp eq ptr %incdec.ptr.i, %add.ptr.i.i
  br i1 %cmp.not.i, label %while.body, label %for.body.i

for.body.i:                                       ; preds = %for.cond.i, %for.body.preheader.i
  %__begin2.05.i = phi ptr [ %incdec.ptr.i, %for.cond.i ], [ %8, %for.body.preheader.i ]
  %11 = load ptr, ptr %__begin2.05.i, align 8
  %m_closed.i.i.i = getelementptr inbounds i8, ptr %11, i64 48
  %12 = load i8, ptr %m_closed.i.i.i, align 8
  %13 = and i8 %12, 1
  %tobool.i.not.i.not.i = icmp eq i8 %13, 0
  br i1 %tobool.i.not.i.not.i, label %while.end, label %for.cond.i

while.body:                                       ; preds = %for.cond.i, %land.rhs
  store i8 1, ptr %m_closed.i.i7, align 8
  %p.0.in = getelementptr inbounds i8, ptr %p.020, i64 8
  %p.0 = load ptr, ptr %p.0.in, align 8
  %tobool.not = icmp eq ptr %p.0, null
  br i1 %tobool.not, label %while.end, label %land.rhs, !llvm.loop !7

while.end:                                        ; preds = %for.body, %while.body, %_ZNK6vectorIPN6spacer10model_nodeELb0EjE5emptyEv.exit.i, %if.end.i, %for.body.i, %for.end
  ret void
}